; Function Attrs: mustprogress uwtable
define noundef zeroext i1 @_ZN5Ipopt9IpoptData10InitializeERKNS_10JournalistERKNS_11OptionsListERKNSt7__cxx1112basic_stringIcSt11char_traitsIcESaIcEEE(ptr noundef nonnull align 8 dereferenceable(2232) %0, ptr noundef nonnull align 8 dereferenceable(40) %1, ptr noundef nonnull align 8 dereferenceable(112) %2, ptr noundef nonnull align 8 dereferenceable(32) %3) local_unnamed_addr #3 align 2 personality ptr @__gxx_personality_v0 {
  %5 = alloca %"class.std::__cxx11::basic_string", align 8
  %6 = alloca %"class.std::allocator", align 1
  call void @_ZNSaIcEC1Ev(ptr noundef nonnull align 1 dereferenceable(1) %6) #11
  %7 = invoke noundef ptr @_ZNSt7__cxx1112basic_stringIcSt11char_traitsIcESaIcEE13_M_local_dataEv(ptr noundef nonnull align 8 dereferenceable(32) %5)
          to label %.noexc unwind label %43

.noexc:                                           ; preds = %4
  invoke void @_ZNSt7__cxx1112basic_stringIcSt11char_traitsIcESaIcEE12_Alloc_hiderC1EPcRKS3_(ptr noundef nonnull align 8 dereferenceable(8) %5, ptr noundef %7, ptr noundef nonnull align 1 dereferenceable(1) %6)
          to label %.noexc11 unwind label %43

.noexc11:                                         ; preds = %.noexc
  invoke void @_ZNSt7__cxx1112basic_stringIcSt11char_traitsIcESaIcEE12_M_constructIPKcEEvT_S8_St20forward_iterator_tag(ptr noundef nonnull align 8 dereferenceable(32) %5, ptr noundef nonnull @.str.1, ptr noundef nonnull getelementptr inbounds ([4 x i8], ptr @.str.1, i64 0, i64 3))
          to label %_ZNSt7__cxx1112basic_stringIcSt11char_traitsIcESaIcEEC2IS3_EEPKcRKS3_.exit unwind label %8

8:                                                ; preds = %.noexc11
  %9 = landingpad { ptr, i32 }
          cleanup
  call void @_ZNSaIcED2Ev(ptr noundef nonnull align 1 dereferenceable(1) %5) #11
  br label %.body

_ZNSt7__cxx1112basic_stringIcSt11char_traitsIcESaIcEEC2IS3_EEPKcRKS3_.exit: ; preds = %.noexc11
  %10 = getelementptr inbounds i8, ptr %0, i64 104
  %11 = load ptr, ptr %2, align 8
  %12 = getelementptr inbounds i8, ptr %11, i64 144
  %13 = load ptr, ptr %12, align 8
  %14 = invoke noundef zeroext i1 %13(ptr noundef nonnull align 8 dereferenceable(112) %2, ptr noundef nonnull align 8 dereferenceable(32) %5, ptr noundef nonnull align 8 dereferenceable(8) %10, ptr noundef nonnull align 8 dereferenceable(32) %3)
          to label %15 unwind label %45

15:                                               ; preds = %_ZNSt7__cxx1112basic_stringIcSt11char_traitsIcESaIcEEC2IS3_EEPKcRKS3_.exit
  call void @_ZNSt7__cxx1112basic_stringIcSt11char_traitsIcESaIcEED1Ev(ptr noundef nonnull align 8 dereferenceable(32) %5) #11
  call void @_ZNSaIcED1Ev(ptr noundef nonnull align 1 dereferenceable(1) %6) #11
  %16 = getelementptr inbounds i8, ptr %0, i64 68
  store i32 0, ptr %16, align 4
  %17 = getelementptr inbounds i8, ptr %0, i64 72
  store double -1.000000e+00, ptr %17, align 8
  %18 = getelementptr inbounds i8, ptr %0, i64 80
  store i8 0, ptr %18, align 8
  %19 = getelementptr inbounds i8, ptr %0, i64 88
  store double -1.000000e+00, ptr %19, align 8
  %20 = getelementptr inbounds i8, ptr %0, i64 96
  store i8 0, ptr %20, align 8
  %21 = getelementptr inbounds i8, ptr %0, i64 98
  store i8 0, ptr %21, align 2
  %22 = getelementptr inbounds i8, ptr %0, i64 48
  store i8 0, ptr %22, align 8
  %23 = getelementptr inbounds i8, ptr %0, i64 64
  store i8 0, ptr %23, align 8
  %24 = getelementptr inbounds i8, ptr %0, i64 112
  store i8 0, ptr %24, align 8
  %25 = getelementptr inbounds i8, ptr %0, i64 113
  store i8 0, ptr %25, align 1
  %26 = getelementptr inbounds i8, ptr %0, i64 152
  store i32 0, ptr %26, align 8
  %27 = getelementptr inbounds i8, ptr %0, i64 120
  %28 = getelementptr inbounds i8, ptr %0, i64 144
  store double 0.000000e+00, ptr %28, align 8
  %29 = getelementptr inbounds i8, ptr %0, i64 136
  call void @llvm.memset.p0.i64(ptr noundef nonnull align 8 dereferenceable(16) %27, i8 0, i64 16, i1 false)
  store i8 32, ptr %29, align 8
  %30 = getelementptr inbounds i8, ptr %0, i64 156
  store i8 0, ptr %30, align 4
  %31 = getelementptr inbounds i8, ptr %0, i64 160
  %32 = call noundef nonnull align 8 dereferenceable(32) ptr @_ZNSt7__cxx1112basic_stringIcSt11char_traitsIcESaIcEE5eraseEmm(ptr noundef nonnull align 8 dereferenceable(32) %31, i64 noundef 0, i64 noundef -1)
  %33 = getelementptr inbounds i8, ptr %0, i64 192
  store double -1.000000e+00, ptr %33, align 8
  %34 = getelementptr inbounds i8, ptr %0, i64 200
  store i32 1000, ptr %34, align 8
  %35 = getelementptr inbounds i8, ptr %0, i64 97
  store i8 1, ptr %35, align 1
  %36 = getelementptr inbounds i8, ptr %0, i64 2192
  %37 = load ptr, ptr %36, align 8
  %.not = icmp eq ptr %37, null
  br i1 %.not, label %47, label %38

38:                                               ; preds = %15
  %39 = load ptr, ptr %37, align 8
  %40 = getelementptr inbounds i8, ptr %39, i64 16
  %41 = load ptr, ptr %40, align 8
  %42 = call noundef zeroext i1 %41(ptr noundef nonnull align 8 dereferenceable(12) %37, ptr noundef nonnull align 8 dereferenceable(40) %1, ptr noundef nonnull align 8 dereferenceable(112) %2, ptr noundef nonnull align 8 dereferenceable(32) %3)
  br label %47

43:                                               ; preds = %.noexc, %4
  %44 = landingpad { ptr, i32 }
          cleanup
  br label %.body

45:                                               ; preds = %_ZNSt7__cxx1112basic_stringIcSt11char_traitsIcESaIcEEC2IS3_EEPKcRKS3_.exit
  %46 = landingpad { ptr, i32 }
          cleanup
  call void @_ZNSt7__cxx1112basic_stringIcSt11char_traitsIcESaIcEED1Ev(ptr noundef nonnull align 8 dereferenceable(32) %5) #11
  br label %.body

.body:                                            ; preds = %43, %8, %45
  %.pn = phi { ptr, i32 } [ %46, %45 ], [ %44, %43 ], [ %9, %8 ]
  call void @_ZNSaIcED1Ev(ptr noundef nonnull align 1 dereferenceable(1) %6) #11
  resume { ptr, i32 } %.pn

47:                                               ; preds = %38, %15
  %.0 = phi i1 [ %42, %38 ], [ true, %15 ]
  ret i1 %.0
}